; Function Attrs: mustprogress nofree norecurse nosync nounwind willreturn memory(none) uwtable
define { i64, ptr } @_ZN8proxygen15RateLimitFilter5toStrENS0_4TypeE(i8 noundef zeroext %type) local_unnamed_addr #3 align 2 personality ptr @__gxx_personality_v0 {
entry:
  %0 = icmp ult i8 %type, 4
  br i1 %0, label %switch.lookup, label %return

switch.lookup:                                    ; preds = %entry
  %1 = zext nneg i8 %type to i64
  %switch.gep = getelementptr inbounds [4 x ptr], ptr @switch.table._ZN8proxygen15RateLimitFilter5toStrENS0_4TypeE, i64 0, i64 %1
  %switch.load = load ptr, ptr %switch.gep, align 8
  %2 = zext nneg i8 %type to i64
  %switch.gep9 = getelementptr inbounds [4 x i64], ptr @switch.table._ZN8proxygen15RateLimitFilter5toStrENS0_4TypeE.1, i64 0, i64 %2
  %switch.load10 = load i64, ptr %switch.gep9, align 8
  br label %return

return:                                           ; preds = %entry, %switch.lookup
  %retval.sroa.6.0 = phi ptr [ %switch.load, %switch.lookup ], [ @.str.4, %entry ]
  %retval.sroa.0.0 = phi i64 [ %switch.load10, %switch.lookup ], [ 7, %entry ]
  %.fca.0.insert = insertvalue { i64, ptr } poison, i64 %retval.sroa.0.0, 0
  %.fca.1.insert = insertvalue { i64, ptr } %.fca.0.insert, ptr %retval.sroa.6.0, 1
  ret { i64, ptr } %.fca.1.insert
}